; ModuleID = '20/1134.c'
source_filename = "20/1134.c"
target datalayout = "e-m:e-p270:32:32-p271:32:32-p272:64:64-i64:64-f80:128-n8:16:32:64-S128"
target triple = "x86_64-pc-linux-gnu"

@.str = private unnamed_addr constant [5 x i8] c"%s%s\00", align 1
@.str.1 = private unnamed_addr constant [4 x i8] c"%s\0A\00", align 1

; Function Attrs: noinline nounwind uwtable
define dso_local i32 @main() #0 {
  %1 = alloca i32, align 4
  %2 = alloca [11 x i8], align 1
  %3 = alloca [4 x i8], align 1
  %4 = alloca [10 x [14 x i8]], align 16
  %5 = alloca i32, align 4
  %6 = alloca i32, align 4
  %7 = alloca i32, align 4
  %8 = alloca i32, align 4
  store i32 0, i32* %1, align 4
  %9 = bitcast [11 x i8]* %2 to i8*
  call void @llvm.memset.p0i8.i64(i8* align 1 %9, i8 0, i64 11, i1 false)
  %10 = bitcast [10 x [14 x i8]]* %4 to i8*
  call void @llvm.memset.p0i8.i64(i8* align 16 %10, i8 0, i64 140, i1 false)
  store i32 0, i32* %8, align 4
  br label %11

11:                                               ; preds = %109, %0
  %12 = getelementptr inbounds [11 x i8], [11 x i8]* %2, i64 0, i64 0
  %13 = getelementptr inbounds [4 x i8], [4 x i8]* %3, i64 0, i64 0
  %14 = call i32 (i8*, ...) @__isoc99_scanf(i8* getelementptr inbounds ([5 x i8], [5 x i8]* @.str, i64 0, i64 0), i8* %12, i8* %13)
  %15 = icmp ne i32 %14, -1
  br i1 %15, label %16, label %112

16:                                               ; preds = %11
  store i32 0, i32* %6, align 4
  store i32 1, i32* %5, align 4
  br label %17

17:                                               ; preds = %38, %16
  %18 = load i32, i32* %5, align 4
  %19 = sext i32 %18 to i64
  %20 = getelementptr inbounds [11 x i8], [11 x i8]* %2, i64 0, i64 0
  %21 = call i64 @strlen(i8* %20) #4
  %22 = icmp ult i64 %19, %21
  br i1 %22, label %23, label %41

23:                                               ; preds = %17
  %24 = load i32, i32* %5, align 4
  %25 = sext i32 %24 to i64
  %26 = getelementptr inbounds [11 x i8], [11 x i8]* %2, i64 0, i64 %25
  %27 = load i8, i8* %26, align 1
  %28 = sext i8 %27 to i32
  %29 = load i32, i32* %6, align 4
  %30 = sext i32 %29 to i64
  %31 = getelementptr inbounds [11 x i8], [11 x i8]* %2, i64 0, i64 %30
  %32 = load i8, i8* %31, align 1
  %33 = sext i8 %32 to i32
  %34 = icmp sgt i32 %28, %33
  br i1 %34, label %35, label %37

35:                                               ; preds = %23
  %36 = load i32, i32* %5, align 4
  store i32 %36, i32* %6, align 4
  br label %37

37:                                               ; preds = %35, %23
  br label %38

38:                                               ; preds = %37
  %39 = load i32, i32* %5, align 4
  %40 = add nsw i32 %39, 1
  store i32 %40, i32* %5, align 4
  br label %17

41:                                               ; preds = %17
  %42 = getelementptr inbounds [11 x i8], [11 x i8]* %2, i64 0, i64 0
  %43 = call i64 @strlen(i8* %42) #4
  %44 = add i64 %43, 2
  %45 = trunc i64 %44 to i32
  store i32 %45, i32* %5, align 4
  br label %46

46:                                               ; preds = %63, %41
  %47 = load i32, i32* %5, align 4
  %48 = load i32, i32* %6, align 4
  %49 = add nsw i32 %48, 3
  %50 = icmp sgt i32 %47, %49
  br i1 %50, label %51, label %66

51:                                               ; preds = %46
  %52 = load i32, i32* %5, align 4
  %53 = sub nsw i32 %52, 3
  %54 = sext i32 %53 to i64
  %55 = getelementptr inbounds [11 x i8], [11 x i8]* %2, i64 0, i64 %54
  %56 = load i8, i8* %55, align 1
  %57 = load i32, i32* %8, align 4
  %58 = sext i32 %57 to i64
  %59 = getelementptr inbounds [10 x [14 x i8]], [10 x [14 x i8]]* %4, i64 0, i64 %58
  %60 = load i32, i32* %5, align 4
  %61 = sext i32 %60 to i64
  %62 = getelementptr inbounds [14 x i8], [14 x i8]* %59, i64 0, i64 %61
  store i8 %56, i8* %62, align 1
  br label %63

63:                                               ; preds = %51
  %64 = load i32, i32* %5, align 4
  %65 = add nsw i32 %64, -1
  store i32 %65, i32* %5, align 4
  br label %46

66:                                               ; preds = %46
  store i32 0, i32* %5, align 4
  br label %67

67:                                               ; preds = %82, %66
  %68 = load i32, i32* %5, align 4
  %69 = load i32, i32* %6, align 4
  %70 = icmp sle i32 %68, %69
  br i1 %70, label %71, label %85

71:                                               ; preds = %67
  %72 = load i32, i32* %5, align 4
  %73 = sext i32 %72 to i64
  %74 = getelementptr inbounds [11 x i8], [11 x i8]* %2, i64 0, i64 %73
  %75 = load i8, i8* %74, align 1
  %76 = load i32, i32* %8, align 4
  %77 = sext i32 %76 to i64
  %78 = getelementptr inbounds [10 x [14 x i8]], [10 x [14 x i8]]* %4, i64 0, i64 %77
  %79 = load i32, i32* %5, align 4
  %80 = sext i32 %79 to i64
  %81 = getelementptr inbounds [14 x i8], [14 x i8]* %78, i64 0, i64 %80
  store i8 %75, i8* %81, align 1
  br label %82

82:                                               ; preds = %71
  %83 = load i32, i32* %5, align 4
  %84 = add nsw i32 %83, 1
  store i32 %84, i32* %5, align 4
  br label %67

85:                                               ; preds = %67
  store i32 0, i32* %7, align 4
  %86 = load i32, i32* %6, align 4
  %87 = add nsw i32 %86, 1
  store i32 %87, i32* %5, align 4
  br label %88

88:                                               ; preds = %104, %85
  %89 = load i32, i32* %5, align 4
  %90 = load i32, i32* %6, align 4
  %91 = add nsw i32 %90, 4
  %92 = icmp slt i32 %89, %91
  br i1 %92, label %93, label %109

93:                                               ; preds = %88
  %94 = load i32, i32* %7, align 4
  %95 = sext i32 %94 to i64
  %96 = getelementptr inbounds [4 x i8], [4 x i8]* %3, i64 0, i64 %95
  %97 = load i8, i8* %96, align 1
  %98 = load i32, i32* %8, align 4
  %99 = sext i32 %98 to i64
  %100 = getelementptr inbounds [10 x [14 x i8]], [10 x [14 x i8]]* %4, i64 0, i64 %99
  %101 = load i32, i32* %5, align 4
  %102 = sext i32 %101 to i64
  %103 = getelementptr inbounds [14 x i8], [14 x i8]* %100, i64 0, i64 %102
  store i8 %97, i8* %103, align 1
  br label %104

104:                                              ; preds = %93
  %105 = load i32, i32* %5, align 4
  %106 = add nsw i32 %105, 1
  store i32 %106, i32* %5, align 4
  %107 = load i32, i32* %7, align 4
  %108 = add nsw i32 %107, 1
  store i32 %108, i32* %7, align 4
  br label %88

109:                                              ; preds = %88
  %110 = load i32, i32* %8, align 4
  %111 = add nsw i32 %110, 1
  store i32 %111, i32* %8, align 4
  br label %11

112:                                              ; preds = %11
  store i32 0, i32* %5, align 4
  br label %113

113:                                              ; preds = %123, %112
  %114 = load i32, i32* %5, align 4
  %115 = load i32, i32* %8, align 4
  %116 = icmp slt i32 %114, %115
  br i1 %116, label %117, label %126

117:                                              ; preds = %113
  %118 = load i32, i32* %5, align 4
  %119 = sext i32 %118 to i64
  %120 = getelementptr inbounds [10 x [14 x i8]], [10 x [14 x i8]]* %4, i64 0, i64 %119
  %121 = getelementptr inbounds [14 x i8], [14 x i8]* %120, i64 0, i64 0
  %122 = call i32 (i8*, ...) @printf(i8* getelementptr inbounds ([4 x i8], [4 x i8]* @.str.1, i64 0, i64 0), i8* %121)
  br label %123

123:                                              ; preds = %117
  %124 = load i32, i32* %5, align 4
  %125 = add nsw i32 %124, 1
  store i32 %125, i32* %5, align 4
  br label %113

126:                                              ; preds = %113
  ret i32 0
}

; Function Attrs: argmemonly nounwind willreturn
declare void @llvm.memset.p0i8.i64(i8* nocapture writeonly, i8, i64, i1 immarg) #1

declare dso_local i32 @__isoc99_scanf(i8*, ...) #2

; Function Attrs: nounwind readonly
declare dso_local i64 @strlen(i8*) #3

declare dso_local i32 @printf(i8*, ...) #2


!llvm.module.flags = !{!0}
!llvm.ident = !{!1}

!0 = !{i32 1, !"wchar_size", i32 4}
!1 = !{!"clang version 10.0.0-4ubuntu1 "}
